target datalayout = "e-m:e-p270:32:32-p271:32:32-p272:64:64-i64:64-i128:128-f80:128-n8:16:32:64-S128"
target triple = "x86_64-pc-linux-gnu"

%class.GraphAlg = type { ptr, ptr }
%struct.GraphPCNode = type { %"struct.std::array", i64 }
%"struct.std::array" = type { [2 x i32] }
%class.V3GraphVertex = type { ptr, %class.V3ListLinks, %class.V3List, %class.V3List.0, double, i32, i32, %union.anon }
%class.V3ListLinks = type { ptr, ptr }
%class.V3List = type { ptr, ptr }
%class.V3List.0 = type { ptr, ptr }
%union.anon = type { ptr }
%"class.V3List<V3GraphEdge, &V3GraphEdge::oLinks>::SimpleItertatorImpl" = type { ptr }
%class.GraphPathChecker = type { %class.GraphAlg, i64 }
%class.V3GraphEdge = type { ptr, %class.V3ListLinks.1, %class.V3ListLinks.1, ptr, ptr, i32, i8, %union.anon.2 }
%class.V3ListLinks.1 = type { ptr, ptr }
%union.anon.2 = type { ptr }

; Function Attrs: mustprogress nounwind uwtable
define linkonce_odr dso_local noundef nonnull align 4 dereferenceable(4) ptr @_ZNSt14__array_traitsIjLm2EE6_S_refERA2_Kjm(ptr noundef nonnull align 4 dereferenceable(8) %0, i64 noundef %1) #7 comdat align 2 {
  %3 = alloca ptr, align 8
  %4 = alloca i64, align 8
  store ptr %0, ptr %3, align 8
  store i64 %1, ptr %4, align 8
  %5 = load ptr, ptr %3, align 8
  %6 = load i64, ptr %4, align 8
  %7 = getelementptr inbounds [2 x i32], ptr %5, i64 0, i64 %6
  ret ptr %7
}

; Function Attrs: mustprogress nounwind uwtable
define linkonce_odr dso_local noundef ptr @_ZNK11V3GraphEdge3topEv(ptr noundef nonnull align 8 dereferenceable(72) %0) #7 comdat align 2 {
  %2 = alloca ptr, align 8
  store ptr %0, ptr %2, align 8
  %3 = load ptr, ptr %2, align 8
  %4 = getelementptr inbounds %class.V3GraphEdge, ptr %3, i32 0, i32 4
  %5 = load ptr, ptr %4, align 8
  ret ptr %5
}

; Function Attrs: mustprogress nounwind uwtable
define linkonce_odr dso_local noundef nonnull align 8 dereferenceable(16) ptr @_ZN11V3GraphEdge6oLinksEv(ptr noundef nonnull align 8 dereferenceable(72) %0) #7 comdat align 2 {
  %2 = alloca ptr, align 8
  store ptr %0, ptr %2, align 8
  %3 = load ptr, ptr %2, align 8
  %4 = getelementptr inbounds %class.V3GraphEdge, ptr %3, i32 0, i32 1
  ret ptr %4
}

; Function Attrs: mustprogress uwtable
define linkonce_odr dso_local ptr @_ZNK6V3ListI11V3GraphEdgeXadL_ZNS0_6oLinksEvEES0_E3endEv(ptr noundef nonnull align 8 dereferenceable(16) %0) #4 comdat align 2 {
  %2 = alloca ptr, align 8
  %3 = alloca ptr, align 8
  %4 = alloca %"class.V3List<V3GraphEdge, &V3GraphEdge::oLinks>::SimpleItertatorImpl", align 8
  %5 = alloca ptr, align 8
  store ptr %0, ptr %5, align 8
  store ptr %4, ptr %2, align 8
  store ptr null, ptr %3, align 8
  %6 = load ptr, ptr %2, align 8
  %7 = load ptr, ptr %3, align 8
  store ptr %7, ptr %6, align 8
  %8 = getelementptr inbounds %"class.V3List<V3GraphEdge, &V3GraphEdge::oLinks>::SimpleItertatorImpl", ptr %4, i32 0, i32 0
  %9 = load ptr, ptr %8, align 8
  ret ptr %9
}

; Function Attrs: mustprogress uwtable
define linkonce_odr dso_local ptr @_ZNK6V3ListI11V3GraphEdgeXadL_ZNS0_6oLinksEvEES0_E5beginEv(ptr noundef nonnull align 8 dereferenceable(16) %0) #4 comdat align 2 {
  %2 = alloca ptr, align 8
  %3 = alloca ptr, align 8
  %4 = alloca %"class.V3List<V3GraphEdge, &V3GraphEdge::oLinks>::SimpleItertatorImpl", align 8
  %5 = alloca ptr, align 8
  store ptr %0, ptr %5, align 8
  %6 = load ptr, ptr %5, align 8
  %7 = getelementptr inbounds %class.V3List, ptr %6, i32 0, i32 0
  %8 = load ptr, ptr %7, align 8
  store ptr %4, ptr %2, align 8
  store ptr %8, ptr %3, align 8
  %9 = load ptr, ptr %2, align 8
  %10 = load ptr, ptr %3, align 8
  store ptr %10, ptr %9, align 8
  %11 = getelementptr inbounds %"class.V3List<V3GraphEdge, &V3GraphEdge::oLinks>::SimpleItertatorImpl", ptr %4, i32 0, i32 0
  %12 = load ptr, ptr %11, align 8
  ret ptr %12
}

; Function Attrs: mustprogress nounwind uwtable
define linkonce_odr dso_local noundef nonnull align 8 dereferenceable(16) ptr @_ZNK13V3GraphVertex8outEdgesEv(ptr noundef nonnull align 8 dereferenceable(80) %0) #7 comdat align 2 {
  %2 = alloca ptr, align 8
  store ptr %0, ptr %2, align 8
  %3 = load ptr, ptr %2, align 8
  %4 = getelementptr inbounds %class.V3GraphVertex, ptr %3, i32 0, i32 2
  ret ptr %4
}

; Function Attrs: mustprogress nounwind uwtable
define linkonce_odr dso_local noundef nonnull align 4 dereferenceable(4) ptr @_ZNKSt5arrayIjLm2EEixEm(ptr noundef nonnull align 4 dereferenceable(8) %0, i64 noundef %1) #7 comdat align 2 {
  %3 = alloca ptr, align 8
  %4 = alloca i64, align 8
  store ptr %0, ptr %3, align 8
  store i64 %1, ptr %4, align 8
  %5 = load ptr, ptr %3, align 8
  %6 = getelementptr inbounds %"struct.std::array", ptr %5, i32 0, i32 0
  %7 = load i64, ptr %4, align 8
  %8 = call noundef nonnull align 4 dereferenceable(4) ptr @_ZNSt14__array_traitsIjLm2EE6_S_refERA2_Kjm(ptr noundef nonnull align 4 dereferenceable(8) %6, i64 noundef %7) #3
  ret ptr %8
}

; Function Attrs: mustprogress nounwind uwtable
define linkonce_odr dso_local noundef nonnull align 4 dereferenceable(4) ptr @_ZNSt5arrayIjLm2EEixEm(ptr noundef nonnull align 4 dereferenceable(8) %0, i64 noundef %1) #7 comdat align 2 {
  %3 = alloca ptr, align 8
  %4 = alloca i64, align 8
  store ptr %0, ptr %3, align 8
  store i64 %1, ptr %4, align 8
  %5 = load ptr, ptr %3, align 8
  %6 = getelementptr inbounds %"struct.std::array", ptr %5, i32 0, i32 0
  %7 = load i64, ptr %4, align 8
  %8 = call noundef nonnull align 4 dereferenceable(4) ptr @_ZNSt14__array_traitsIjLm2EE6_S_refERA2_Kjm(ptr noundef nonnull align 4 dereferenceable(8) %6, i64 noundef %7) #3
  ret ptr %8
}

; Function Attrs: mustprogress nounwind uwtable
define linkonce_odr dso_local noundef ptr @_ZNK13V3GraphVertex5userpEv(ptr noundef nonnull align 8 dereferenceable(80) %0) #7 comdat align 2 {
  %2 = alloca ptr, align 8
  store ptr %0, ptr %2, align 8
  %3 = load ptr, ptr %2, align 8
  %4 = getelementptr inbounds %class.V3GraphVertex, ptr %3, i32 0, i32 7
  %5 = load ptr, ptr %4, align 8
  ret ptr %5
}

; Function Attrs: mustprogress uwtable
define dso_local noundef zeroext i1 @_ZN16GraphPathChecker18pathExistsInternalEPK13V3GraphVertexS2_Pj(ptr noundef nonnull align 8 dereferenceable(24) %0, ptr noundef %1, ptr noundef %2, ptr noundef %3) #4 align 2 {
  %5 = alloca ptr, align 8
  %6 = alloca ptr, align 8
  %7 = alloca ptr, align 8
  %8 = alloca ptr, align 8
  %9 = alloca ptr, align 8
  %10 = alloca ptr, align 8
  %11 = alloca ptr, align 8
  %12 = alloca ptr, align 8
  %13 = alloca ptr, align 8
  %14 = alloca ptr, align 8
  %15 = alloca i1, align 1
  %16 = alloca ptr, align 8
  %17 = alloca ptr, align 8
  %18 = alloca ptr, align 8
  %19 = alloca ptr, align 8
  %20 = alloca ptr, align 8
  %21 = alloca ptr, align 8
  %22 = alloca i8, align 1
  %23 = alloca ptr, align 8
  %24 = alloca %"class.V3List<V3GraphEdge, &V3GraphEdge::oLinks>::SimpleItertatorImpl", align 8
  %25 = alloca %"class.V3List<V3GraphEdge, &V3GraphEdge::oLinks>::SimpleItertatorImpl", align 8
  %26 = alloca ptr, align 8
  %27 = alloca i32, align 4
  store ptr %0, ptr %16, align 8
  store ptr %1, ptr %17, align 8
  store ptr %2, ptr %18, align 8
  store ptr %3, ptr %19, align 8
  %28 = load ptr, ptr %16, align 8
  %29 = load ptr, ptr %17, align 8
  %30 = call noundef ptr @_ZNK13V3GraphVertex5userpEv(ptr noundef nonnull align 8 dereferenceable(80) %29)
  store ptr %30, ptr %20, align 8
  %31 = load ptr, ptr %18, align 8
  %32 = call noundef ptr @_ZNK13V3GraphVertex5userpEv(ptr noundef nonnull align 8 dereferenceable(80) %31)
  store ptr %32, ptr %21, align 8
  %33 = load ptr, ptr %20, align 8
  %34 = getelementptr inbounds %struct.GraphPCNode, ptr %33, i32 0, i32 1
  %35 = load i64, ptr %34, align 8
  %36 = getelementptr inbounds %class.GraphPathChecker, ptr %28, i32 0, i32 1
  %37 = load i64, ptr %36, align 8
  %38 = icmp eq i64 %35, %37
  br i1 %38, label %39, label %45

39:                                               ; preds = %4
  %40 = load ptr, ptr %19, align 8
  %41 = icmp ne ptr %40, null
  br i1 %41, label %42, label %44

42:                                               ; preds = %39
  %43 = load ptr, ptr %19, align 8
  store i32 0, ptr %43, align 4
  br label %44

44:                                               ; preds = %42, %39
  store i1 false, ptr %15, align 1
  br label %145

45:                                               ; preds = %4
  %46 = getelementptr inbounds %class.GraphPathChecker, ptr %28, i32 0, i32 1
  %47 = load i64, ptr %46, align 8
  %48 = load ptr, ptr %20, align 8
  %49 = getelementptr inbounds %struct.GraphPCNode, ptr %48, i32 0, i32 1
  store i64 %47, ptr %49, align 8
  %50 = load ptr, ptr %19, align 8
  %51 = icmp ne ptr %50, null
  br i1 %51, label %52, label %54

52:                                               ; preds = %45
  %53 = load ptr, ptr %19, align 8
  store i32 1, ptr %53, align 4
  br label %54

54:                                               ; preds = %52, %45
  %55 = load ptr, ptr %17, align 8
  %56 = load ptr, ptr %18, align 8
  %57 = icmp eq ptr %55, %56
  br i1 %57, label %58, label %59

58:                                               ; preds = %54
  store i1 true, ptr %15, align 1
  br label %145

59:                                               ; preds = %54
  %60 = load ptr, ptr %20, align 8
  %61 = getelementptr inbounds %struct.GraphPCNode, ptr %60, i32 0, i32 0
  %62 = call noundef nonnull align 4 dereferenceable(4) ptr @_ZNSt5arrayIjLm2EEixEm(ptr noundef nonnull align 4 dereferenceable(8) %61, i64 noundef 1) #3
  %63 = load i32, ptr %62, align 4
  %64 = load ptr, ptr %21, align 8
  %65 = getelementptr inbounds %struct.GraphPCNode, ptr %64, i32 0, i32 0
  %66 = call noundef nonnull align 4 dereferenceable(4) ptr @_ZNKSt5arrayIjLm2EEixEm(ptr noundef nonnull align 4 dereferenceable(8) %65, i64 noundef 1) #3
  %67 = load i32, ptr %66, align 4
  %68 = add i32 %67, 1
  %69 = icmp ult i32 %63, %68
  br i1 %69, label %70, label %71

70:                                               ; preds = %59
  store i1 false, ptr %15, align 1
  br label %145

71:                                               ; preds = %59
  %72 = load ptr, ptr %21, align 8
  %73 = getelementptr inbounds %struct.GraphPCNode, ptr %72, i32 0, i32 0
  %74 = call noundef nonnull align 4 dereferenceable(4) ptr @_ZNKSt5arrayIjLm2EEixEm(ptr noundef nonnull align 4 dereferenceable(8) %73, i64 noundef 0) #3
  %75 = load i32, ptr %74, align 4
  %76 = load ptr, ptr %20, align 8
  %77 = getelementptr inbounds %struct.GraphPCNode, ptr %76, i32 0, i32 0
  %78 = call noundef nonnull align 4 dereferenceable(4) ptr @_ZNSt5arrayIjLm2EEixEm(ptr noundef nonnull align 4 dereferenceable(8) %77, i64 noundef 0) #3
  %79 = load i32, ptr %78, align 4
  %80 = add i32 %79, 1
  %81 = icmp ult i32 %75, %80
  br i1 %81, label %82, label %83

82:                                               ; preds = %71
  store i1 false, ptr %15, align 1
  br label %145

83:                                               ; preds = %71
  store i8 0, ptr %22, align 1
  %84 = load ptr, ptr %17, align 8
  %85 = call noundef nonnull align 8 dereferenceable(16) ptr @_ZNK13V3GraphVertex8outEdgesEv(ptr noundef nonnull align 8 dereferenceable(80) %84)
  store ptr %85, ptr %23, align 8
  %86 = load ptr, ptr %23, align 8
  %87 = call ptr @_ZNK6V3ListI11V3GraphEdgeXadL_ZNS0_6oLinksEvEES0_E5beginEv(ptr noundef nonnull align 8 dereferenceable(16) %86)
  %88 = getelementptr inbounds %"class.V3List<V3GraphEdge, &V3GraphEdge::oLinks>::SimpleItertatorImpl", ptr %24, i32 0, i32 0
  store ptr %87, ptr %88, align 8
  %89 = load ptr, ptr %23, align 8
  %90 = call ptr @_ZNK6V3ListI11V3GraphEdgeXadL_ZNS0_6oLinksEvEES0_E3endEv(ptr noundef nonnull align 8 dereferenceable(16) %89)
  %91 = getelementptr inbounds %"class.V3List<V3GraphEdge, &V3GraphEdge::oLinks>::SimpleItertatorImpl", ptr %25, i32 0, i32 0
  store ptr %90, ptr %91, align 8
  br label %92

92:                                               ; preds = %135, %83
  store ptr %24, ptr %13, align 8
  store ptr %25, ptr %14, align 8
  %93 = load ptr, ptr %13, align 8
  %94 = load ptr, ptr %93, align 8
  %95 = load ptr, ptr %14, align 8
  %96 = load ptr, ptr %95, align 8
  %97 = icmp ne ptr %94, %96
  br i1 %97, label %98, label %142

98:                                               ; preds = %92
  store ptr %24, ptr %12, align 8
  %99 = load ptr, ptr %12, align 8
  %100 = load ptr, ptr %99, align 8
  store ptr %100, ptr %9, align 8
  %101 = load ptr, ptr %9, align 8
  store ptr %101, ptr %8, align 8
  %102 = load ptr, ptr %8, align 8
  %103 = call noundef nonnull align 8 dereferenceable(16) ptr @_ZN11V3GraphEdge6oLinksEv(ptr noundef nonnull align 8 dereferenceable(72) %102)
  %104 = load ptr, ptr %103, align 8
  %105 = load ptr, ptr %99, align 8
  store ptr %104, ptr %5, align 8
  store ptr %105, ptr %6, align 8
  %106 = load ptr, ptr %5, align 8
  %107 = icmp ne ptr %106, null
  br i1 %107, label %108, label %110

108:                                              ; preds = %98
  %109 = load ptr, ptr %5, align 8
  br label %112

110:                                              ; preds = %98
  %111 = load ptr, ptr %6, align 8
  br label %112

112:                                              ; preds = %110, %108
  %113 = phi ptr [ %109, %108 ], [ %111, %110 ]
  call void @llvm.prefetch.p0(ptr %113, i32 1, i32 3, i32 1)
  %114 = load ptr, ptr %99, align 8
  store ptr %114, ptr %26, align 8
  %115 = getelementptr inbounds %class.GraphAlg, ptr %28, i32 0, i32 1
  %116 = load ptr, ptr %115, align 8
  %117 = load ptr, ptr %26, align 8
  %118 = call noundef zeroext i1 %116(ptr noundef %117)
  br i1 %118, label %120, label %119

119:                                              ; preds = %112
  br label %135

120:                                              ; preds = %112
  %121 = load ptr, ptr %26, align 8
  %122 = call noundef ptr @_ZNK11V3GraphEdge3topEv(ptr noundef nonnull align 8 dereferenceable(72) %121)
  %123 = load ptr, ptr %18, align 8
  %124 = call noundef zeroext i1 @_ZN16GraphPathChecker18pathExistsInternalEPK13V3GraphVertexS2_Pj(ptr noundef nonnull align 8 dereferenceable(24) %28, ptr noundef %122, ptr noundef %123, ptr noundef %27)
  br i1 %124, label %125, label %126

125:                                              ; preds = %120
  store i8 1, ptr %22, align 1
  br label %126

126:                                              ; preds = %125, %120
  %127 = load ptr, ptr %19, align 8
  %128 = icmp ne ptr %127, null
  br i1 %128, label %129, label %134

129:                                              ; preds = %126
  %130 = load i32, ptr %27, align 4
  %131 = load ptr, ptr %19, align 8
  %132 = load i32, ptr %131, align 4
  %133 = add i32 %132, %130
  store i32 %133, ptr %131, align 4
  br label %134

134:                                              ; preds = %129, %126
  br label %135

135:                                              ; preds = %134, %119
  store ptr %24, ptr %11, align 8
  %136 = load ptr, ptr %11, align 8
  %137 = load ptr, ptr %136, align 8
  store ptr %137, ptr %10, align 8
  %138 = load ptr, ptr %10, align 8
  store ptr %138, ptr %7, align 8
  %139 = load ptr, ptr %7, align 8
  %140 = call noundef nonnull align 8 dereferenceable(16) ptr @_ZN11V3GraphEdge6oLinksEv(ptr noundef nonnull align 8 dereferenceable(72) %139)
  %141 = load ptr, ptr %140, align 8
  store ptr %141, ptr %136, align 8
  br label %92

142:                                              ; preds = %92
  %143 = load i8, ptr %22, align 1
  %144 = trunc i8 %143 to i1
  store i1 %144, ptr %15, align 1
  br label %145

145:                                              ; preds = %142, %82, %70, %58, %44
  %146 = load i1, ptr %15, align 1
  ret i1 %146
}