; Function Attrs: mustprogress uwtable
define dso_local noundef zeroext i1 @_ZN16GraphPathChecker18pathExistsInternalEPK13V3GraphVertexS2_Pj(ptr nocapture noundef nonnull readonly align 8 dereferenceable(24) %0, ptr noundef readonly %1, ptr noundef %2, ptr noundef %3) #3 align 2 {
  %5 = alloca i32, align 4
  %6 = getelementptr inbounds i8, ptr %1, i64 72
  %7 = load ptr, ptr %6, align 8
  %8 = getelementptr inbounds i8, ptr %2, i64 72
  %9 = load ptr, ptr %8, align 8
  %10 = getelementptr inbounds i8, ptr %7, i64 8
  %11 = load i64, ptr %10, align 8
  %12 = getelementptr inbounds i8, ptr %0, i64 16
  %13 = load i64, ptr %12, align 8
  %14 = icmp eq i64 %11, %13
  br i1 %14, label %15, label %17

15:                                               ; preds = %4
  %.not49 = icmp eq ptr %3, null
  br i1 %.not49, label %61, label %16

16:                                               ; preds = %15
  store i32 0, ptr %3, align 4
  br label %61

17:                                               ; preds = %4
  store i64 %13, ptr %10, align 8
  %.not = icmp eq ptr %3, null
  br i1 %.not, label %19, label %18

18:                                               ; preds = %17
  store i32 1, ptr %3, align 4
  br label %19

19:                                               ; preds = %18, %17
  %20 = icmp eq ptr %1, %2
  br i1 %20, label %61, label %21

21:                                               ; preds = %19
  %22 = getelementptr inbounds i8, ptr %7, i64 4
  %23 = load i32, ptr %22, align 4
  %24 = getelementptr inbounds i8, ptr %9, i64 4
  %25 = load i32, ptr %24, align 4
  %26 = add i32 %25, 1
  %27 = icmp ult i32 %23, %26
  br i1 %27, label %61, label %28

28:                                               ; preds = %21
  %29 = load i32, ptr %9, align 4
  %30 = load i32, ptr %7, align 4
  %31 = add i32 %30, 1
  %32 = icmp ult i32 %29, %31
  br i1 %32, label %61, label %33

33:                                               ; preds = %28
  %34 = getelementptr inbounds i8, ptr %1, i64 24
  %.sroa.0.050 = load ptr, ptr %34, align 8
  %.not4751 = icmp eq ptr %.sroa.0.050, null
  br i1 %.not4751, label %._crit_edge, label %.lr.ph

.lr.ph:                                           ; preds = %33
  %35 = getelementptr inbounds i8, ptr %0, i64 8
  br i1 %.not, label %.lr.ph.split.us, label %.lr.ph.split

.lr.ph.split.us:                                  ; preds = %.lr.ph, %45
  %.sroa.0.053.us = phi ptr [ %.sroa.0.0.us, %45 ], [ %.sroa.0.050, %.lr.ph ]
  %.03552.us = phi i8 [ %.2.us, %45 ], [ 0, %.lr.ph ]
  %36 = getelementptr inbounds i8, ptr %.sroa.0.053.us, i64 8
  %37 = load ptr, ptr %36, align 8
  %.not48.us = icmp eq ptr %37, null
  %38 = select i1 %.not48.us, ptr %.sroa.0.053.us, ptr %37
  call void @llvm.prefetch.p0(ptr nonnull %38, i32 1, i32 3, i32 1)
  %39 = load ptr, ptr %35, align 8
  %40 = call noundef zeroext i1 %39(ptr noundef nonnull %.sroa.0.053.us)
  br i1 %40, label %41, label %45

41:                                               ; preds = %.lr.ph.split.us
  %42 = getelementptr inbounds i8, ptr %.sroa.0.053.us, i64 48
  %43 = load ptr, ptr %42, align 8
  %44 = call noundef zeroext i1 @_ZN16GraphPathChecker18pathExistsInternalEPK13V3GraphVertexS2_Pj(ptr noundef nonnull align 8 dereferenceable(24) %0, ptr noundef %43, ptr noundef nonnull %2, ptr noundef nonnull %5)
  %spec.select.us = select i1 %44, i8 1, i8 %.03552.us
  br label %45

45:                                               ; preds = %41, %.lr.ph.split.us
  %.2.us = phi i8 [ %spec.select.us, %41 ], [ %.03552.us, %.lr.ph.split.us ]
  %.sroa.0.0.us = load ptr, ptr %36, align 8
  %.not47.us = icmp eq ptr %.sroa.0.0.us, null
  br i1 %.not47.us, label %._crit_edge, label %.lr.ph.split.us

.lr.ph.split:                                     ; preds = %.lr.ph, %58
  %.sroa.0.053 = phi ptr [ %.sroa.0.0, %58 ], [ %.sroa.0.050, %.lr.ph ]
  %.03552 = phi i8 [ %.2, %58 ], [ 0, %.lr.ph ]
  %46 = getelementptr inbounds i8, ptr %.sroa.0.053, i64 8
  %47 = load ptr, ptr %46, align 8
  %.not48 = icmp eq ptr %47, null
  %48 = select i1 %.not48, ptr %.sroa.0.053, ptr %47
  call void @llvm.prefetch.p0(ptr nonnull %48, i32 1, i32 3, i32 1)
  %49 = load ptr, ptr %35, align 8
  %50 = call noundef zeroext i1 %49(ptr noundef nonnull %.sroa.0.053)
  br i1 %50, label %51, label %58

51:                                               ; preds = %.lr.ph.split
  %52 = getelementptr inbounds i8, ptr %.sroa.0.053, i64 48
  %53 = load ptr, ptr %52, align 8
  %54 = call noundef zeroext i1 @_ZN16GraphPathChecker18pathExistsInternalEPK13V3GraphVertexS2_Pj(ptr noundef nonnull align 8 dereferenceable(24) %0, ptr noundef %53, ptr noundef nonnull %2, ptr noundef nonnull %5)
  %spec.select = select i1 %54, i8 1, i8 %.03552
  %55 = load i32, ptr %5, align 4
  %56 = load i32, ptr %3, align 4
  %57 = add i32 %56, %55
  store i32 %57, ptr %3, align 4
  br label %58

58:                                               ; preds = %51, %.lr.ph.split
  %.2 = phi i8 [ %spec.select, %51 ], [ %.03552, %.lr.ph.split ]
  %.sroa.0.0 = load ptr, ptr %46, align 8
  %.not47 = icmp eq ptr %.sroa.0.0, null
  br i1 %.not47, label %._crit_edge, label %.lr.ph.split

._crit_edge:                                      ; preds = %58, %45, %33
  %.035.lcssa = phi i8 [ 0, %33 ], [ %.2.us, %45 ], [ %.2, %58 ]
  %59 = and i8 %.035.lcssa, 1
  %60 = icmp ne i8 %59, 0
  br label %61

61:                                               ; preds = %28, %21, %19, %15, %16, %._crit_edge
  %.0 = phi i1 [ %60, %._crit_edge ], [ false, %16 ], [ false, %15 ], [ true, %19 ], [ false, %21 ], [ false, %28 ]
  ret i1 %.0
}